target datalayout = "e-m:e-p270:32:32-p271:32:32-p272:64:64-i64:64-i128:128-f80:128-n8:16:32:64-S128"
target triple = "x86_64-unknown-linux-gnu"

%"class.facebook::velox::SelectivityVector" = type <{ %"class.std::vector.47", i32, i32, i32, %"class.std::optional.69", [2 x i8] }>
%"class.std::vector.47" = type { %"struct.std::_Vector_base.48" }
%"struct.std::_Vector_base.48" = type { %"struct.std::_Vector_base<unsigned long, std::allocator<unsigned long>>::_Vector_impl" }
%"struct.std::_Vector_base<unsigned long, std::allocator<unsigned long>>::_Vector_impl" = type { %"struct.std::_Vector_base<unsigned long, std::allocator<unsigned long>>::_Vector_impl_data" }
%"struct.std::_Vector_base<unsigned long, std::allocator<unsigned long>>::_Vector_impl_data" = type { ptr, ptr, ptr }
%"class.std::optional.69" = type { %"struct.std::_Optional_base.70" }
%"struct.std::_Optional_base.70" = type { %"struct.std::_Optional_payload.72" }
%"struct.std::_Optional_payload.72" = type { %"struct.std::_Optional_payload_base.73" }
%"struct.std::_Optional_payload_base.73" = type { %"union.std::_Optional_payload_base<bool>::_Storage", i8 }
%"union.std::_Optional_payload_base<bool>::_Storage" = type { %"struct.std::_Optional_payload_base<bool>::_Empty_byte" }
%"struct.std::_Optional_payload_base<bool>::_Empty_byte" = type { i8 }
%class.anon = type { ptr, ptr, ptr }
%class.anon.195 = type <{ ptr, i8, [7 x i8] }>
%class.anon.196 = type <{ ptr, i8, [7 x i8] }>

; Function Attrs: mustprogress nounwind uwtable
define linkonce_odr void @_ZNSt22_Optional_payload_baseIbE10_M_destroyEv(ptr noundef nonnull align 1 dereferenceable(2) %this) #2 comdat align 2 {
entry:
  %this.addr = alloca ptr, align 8
  store ptr %this, ptr %this.addr, align 8
  %this1 = load ptr, ptr %this.addr, align 8
  %_M_engaged = getelementptr inbounds %"struct.std::_Optional_payload_base.73", ptr %this1, i32 0, i32 1
  store i8 0, ptr %_M_engaged, align 1
  ret void
}

; Function Attrs: mustprogress nounwind uwtable
define linkonce_odr void @_ZNSt22_Optional_payload_baseIbE8_M_resetEv(ptr noundef nonnull align 1 dereferenceable(2) %this) #2 comdat align 2 {
entry:
  %this.addr = alloca ptr, align 8
  store ptr %this, ptr %this.addr, align 8
  %this1 = load ptr, ptr %this.addr, align 8
  %_M_engaged = getelementptr inbounds %"struct.std::_Optional_payload_base.73", ptr %this1, i32 0, i32 1
  %0 = load i8, ptr %_M_engaged, align 1
  %tobool = trunc i8 %0 to i1
  br i1 %tobool, label %if.then, label %if.end

if.then:                                          ; preds = %entry
  call void @_ZNSt22_Optional_payload_baseIbE10_M_destroyEv(ptr noundef nonnull align 1 dereferenceable(2) %this1) #16
  br label %if.end

if.end:                                           ; preds = %if.then, %entry
  ret void
}

; Function Attrs: mustprogress nounwind uwtable
define linkonce_odr void @_ZZN8facebook5velox4bits8fillBitsEPmiibENKUliE_clEi(ptr noundef nonnull align 8 dereferenceable(9) %this, i32 noundef %idx) #2 comdat align 2 {
entry:
  %this.addr = alloca ptr, align 8
  %idx.addr = alloca i32, align 4
  store ptr %this, ptr %this.addr, align 8
  store i32 %idx, ptr %idx.addr, align 4
  %this1 = load ptr, ptr %this.addr, align 8
  %0 = getelementptr inbounds %class.anon.196, ptr %this1, i32 0, i32 1
  %1 = load i8, ptr %0, align 8
  %tobool = trunc i8 %1 to i1
  %cond = select i1 %tobool, i32 -1, i32 0
  %conv = sext i32 %cond to i64
  %2 = getelementptr inbounds %class.anon.196, ptr %this1, i32 0, i32 0
  %3 = load ptr, ptr %2, align 8
  %4 = load i32, ptr %idx.addr, align 4
  %idxprom = sext i32 %4 to i64
  %arrayidx = getelementptr inbounds i64, ptr %3, i64 %idxprom
  store i64 %conv, ptr %arrayidx, align 8
  ret void
}

; Function Attrs: mustprogress nounwind uwtable
define linkonce_odr void @_ZZN8facebook5velox4bits8fillBitsEPmiibENKUlimE_clEim(ptr noundef nonnull align 8 dereferenceable(9) %this, i32 noundef %idx, i64 noundef %mask) #2 comdat align 2 {
entry:
  %this.addr = alloca ptr, align 8
  %idx.addr = alloca i32, align 4
  %mask.addr = alloca i64, align 8
  store ptr %this, ptr %this.addr, align 8
  store i32 %idx, ptr %idx.addr, align 4
  store i64 %mask, ptr %mask.addr, align 8
  %this1 = load ptr, ptr %this.addr, align 8
  %0 = getelementptr inbounds %class.anon.195, ptr %this1, i32 0, i32 1
  %1 = load i8, ptr %0, align 8
  %tobool = trunc i8 %1 to i1
  br i1 %tobool, label %if.then, label %if.else

if.then:                                          ; preds = %entry
  %2 = load i64, ptr %mask.addr, align 8
  %and = and i64 -1, %2
  %3 = getelementptr inbounds %class.anon.195, ptr %this1, i32 0, i32 0
  %4 = load ptr, ptr %3, align 8
  %5 = load i32, ptr %idx.addr, align 4
  %idxprom = sext i32 %5 to i64
  %arrayidx = getelementptr inbounds i64, ptr %4, i64 %idxprom
  %6 = load i64, ptr %arrayidx, align 8
  %or = or i64 %6, %and
  store i64 %or, ptr %arrayidx, align 8
  br label %if.end

if.else:                                          ; preds = %entry
  %7 = load i64, ptr %mask.addr, align 8
  %not = xor i64 %7, -1
  %8 = getelementptr inbounds %class.anon.195, ptr %this1, i32 0, i32 0
  %9 = load ptr, ptr %8, align 8
  %10 = load i32, ptr %idx.addr, align 4
  %idxprom2 = sext i32 %10 to i64
  %arrayidx3 = getelementptr inbounds i64, ptr %9, i64 %idxprom2
  %11 = load i64, ptr %arrayidx3, align 8
  %and4 = and i64 %11, %not
  store i64 %and4, ptr %arrayidx3, align 8
  br label %if.end

if.end:                                           ; preds = %if.else, %if.then
  ret void
}

; Function Attrs: mustprogress nounwind uwtable
define linkonce_odr noundef i64 @_ZN8facebook5velox4bits8highMaskEi(i32 noundef %bits) #2 comdat {
entry:
  %bits.addr = alloca i32, align 4
  store i32 %bits, ptr %bits.addr, align 4
  %0 = load i32, ptr %bits.addr, align 4
  %call = call noundef i64 @_ZN8facebook5velox4bits7lowMaskEi(i32 noundef %0)
  %1 = load i32, ptr %bits.addr, align 4
  %sub = sub nsw i32 64, %1
  %sh_prom = zext i32 %sub to i64
  %shl = shl i64 %call, %sh_prom
  ret i64 %shl
}

; Function Attrs: mustprogress nounwind uwtable
define linkonce_odr noundef i64 @_ZN8facebook5velox4bits7lowMaskEi(i32 noundef %bits) #2 comdat {
entry:
  %bits.addr = alloca i32, align 4
  store i32 %bits, ptr %bits.addr, align 4
  %0 = load i32, ptr %bits.addr, align 4
  %sh_prom = zext i32 %0 to i64
  %shl = shl i64 1, %sh_prom
  %sub = sub i64 %shl, 1
  ret i64 %sub
}

; Function Attrs: mustprogress nounwind uwtable
define linkonce_odr noundef i32 @_ZN8facebook5velox4bits7roundUpIiiEET_S3_T0_(i32 noundef %value, i32 noundef %factor) #2 comdat {
entry:
  %value.addr = alloca i32, align 4
  %factor.addr = alloca i32, align 4
  store i32 %value, ptr %value.addr, align 4
  store i32 %factor, ptr %factor.addr, align 4
  %0 = load i32, ptr %value.addr, align 4
  %1 = load i32, ptr %factor.addr, align 4
  %sub = sub nsw i32 %1, 1
  %add = add nsw i32 %0, %sub
  %2 = load i32, ptr %factor.addr, align 4
  %div = sdiv i32 %add, %2
  %3 = load i32, ptr %factor.addr, align 4
  %mul = mul nsw i32 %div, %3
  ret i32 %mul
}

; Function Attrs: mustprogress nounwind uwtable
define linkonce_odr void @_ZNSt19_Optional_base_implIbSt14_Optional_baseIbLb1ELb1EEE8_M_resetEv(ptr noundef nonnull align 1 dereferenceable(1) %this) #2 comdat align 2 {
entry:
  %this.addr = alloca ptr, align 8
  store ptr %this, ptr %this.addr, align 8
  %this1 = load ptr, ptr %this.addr, align 8
  %_M_payload = getelementptr inbounds %"struct.std::_Optional_base.70", ptr %this1, i32 0, i32 0
  call void @_ZNSt22_Optional_payload_baseIbE8_M_resetEv(ptr noundef nonnull align 1 dereferenceable(2) %_M_payload) #16
  ret void
}

; Function Attrs: mustprogress uwtable
define linkonce_odr void @_ZN8facebook5velox4bits11forEachWordIZNS1_8fillBitsEPmiibEUlimE_ZNS1_8fillBitsES3_iibEUliE_EEviiT_T0_(i32 noundef %begin, i32 noundef %end, ptr %partialWordFunc.coerce0, i8 %partialWordFunc.coerce1, ptr %fullWordFunc.coerce0, i8 %fullWordFunc.coerce1) #0 comdat {
entry:
  %partialWordFunc = alloca %class.anon.195, align 8
  %fullWordFunc = alloca %class.anon.196, align 8
  %begin.addr = alloca i32, align 4
  %end.addr = alloca i32, align 4
  %firstWord = alloca i32, align 4
  %lastWord = alloca i32, align 4
  %i = alloca i32, align 4
  %0 = getelementptr inbounds { ptr, i8 }, ptr %partialWordFunc, i32 0, i32 0
  store ptr %partialWordFunc.coerce0, ptr %0, align 8
  %1 = getelementptr inbounds { ptr, i8 }, ptr %partialWordFunc, i32 0, i32 1
  store i8 %partialWordFunc.coerce1, ptr %1, align 8
  %2 = getelementptr inbounds { ptr, i8 }, ptr %fullWordFunc, i32 0, i32 0
  store ptr %fullWordFunc.coerce0, ptr %2, align 8
  %3 = getelementptr inbounds { ptr, i8 }, ptr %fullWordFunc, i32 0, i32 1
  store i8 %fullWordFunc.coerce1, ptr %3, align 8
  store i32 %begin, ptr %begin.addr, align 4
  store i32 %end, ptr %end.addr, align 4
  %4 = load i32, ptr %begin.addr, align 4
  %5 = load i32, ptr %end.addr, align 4
  %cmp = icmp sge i32 %4, %5
  br i1 %cmp, label %if.then, label %if.end

if.then:                                          ; preds = %entry
  br label %if.end23

if.end:                                           ; preds = %entry
  %6 = load i32, ptr %begin.addr, align 4
  %call = call noundef i32 @_ZN8facebook5velox4bits7roundUpIiiEET_S3_T0_(i32 noundef %6, i32 noundef 64)
  store i32 %call, ptr %firstWord, align 4
  %7 = load i32, ptr %end.addr, align 4
  %conv = sext i32 %7 to i64
  %and = and i64 %conv, -64
  %conv1 = trunc i64 %and to i32
  store i32 %conv1, ptr %lastWord, align 4
  %8 = load i32, ptr %lastWord, align 4
  %9 = load i32, ptr %firstWord, align 4
  %cmp2 = icmp slt i32 %8, %9
  br i1 %cmp2, label %if.then3, label %if.end8

if.then3:                                         ; preds = %if.end
  %10 = load i32, ptr %lastWord, align 4
  %div = sdiv i32 %10, 64
  %11 = load i32, ptr %end.addr, align 4
  %12 = load i32, ptr %lastWord, align 4
  %sub = sub nsw i32 %11, %12
  %call4 = call noundef i64 @_ZN8facebook5velox4bits7lowMaskEi(i32 noundef %sub)
  %13 = load i32, ptr %firstWord, align 4
  %14 = load i32, ptr %begin.addr, align 4
  %sub5 = sub nsw i32 %13, %14
  %call6 = call noundef i64 @_ZN8facebook5velox4bits8highMaskEi(i32 noundef %sub5)
  %and7 = and i64 %call4, %call6
  call void @_ZZN8facebook5velox4bits8fillBitsEPmiibENKUlimE_clEim(ptr noundef nonnull align 8 dereferenceable(9) %partialWordFunc, i32 noundef %div, i64 noundef %and7)
  br label %if.end23

if.end8:                                          ; preds = %if.end
  %15 = load i32, ptr %begin.addr, align 4
  %16 = load i32, ptr %firstWord, align 4
  %cmp9 = icmp ne i32 %15, %16
  br i1 %cmp9, label %if.then10, label %if.end14

if.then10:                                        ; preds = %if.end8
  %17 = load i32, ptr %begin.addr, align 4
  %div11 = sdiv i32 %17, 64
  %18 = load i32, ptr %firstWord, align 4
  %19 = load i32, ptr %begin.addr, align 4
  %sub12 = sub nsw i32 %18, %19
  %call13 = call noundef i64 @_ZN8facebook5velox4bits8highMaskEi(i32 noundef %sub12)
  call void @_ZZN8facebook5velox4bits8fillBitsEPmiibENKUlimE_clEim(ptr noundef nonnull align 8 dereferenceable(9) %partialWordFunc, i32 noundef %div11, i64 noundef %call13)
  br label %if.end14

if.end14:                                         ; preds = %if.then10, %if.end8
  %20 = load i32, ptr %firstWord, align 4
  store i32 %20, ptr %i, align 4
  br label %for.cond

for.cond:                                         ; preds = %for.inc, %if.end14
  %21 = load i32, ptr %i, align 4
  %add = add nsw i32 %21, 64
  %22 = load i32, ptr %lastWord, align 4
  %cmp15 = icmp sle i32 %add, %22
  br i1 %cmp15, label %for.body, label %for.end

for.body:                                         ; preds = %for.cond
  %23 = load i32, ptr %i, align 4
  %div16 = sdiv i32 %23, 64
  call void @_ZZN8facebook5velox4bits8fillBitsEPmiibENKUliE_clEi(ptr noundef nonnull align 8 dereferenceable(9) %fullWordFunc, i32 noundef %div16)
  br label %for.inc

for.inc:                                          ; preds = %for.body
  %24 = load i32, ptr %i, align 4
  %add17 = add nsw i32 %24, 64
  store i32 %add17, ptr %i, align 4
  br label %for.cond, !llvm.loop !48

for.end:                                          ; preds = %for.cond
  %25 = load i32, ptr %end.addr, align 4
  %26 = load i32, ptr %lastWord, align 4
  %cmp18 = icmp ne i32 %25, %26
  br i1 %cmp18, label %if.then19, label %if.end23

if.then19:                                        ; preds = %for.end
  %27 = load i32, ptr %lastWord, align 4
  %div20 = sdiv i32 %27, 64
  %28 = load i32, ptr %end.addr, align 4
  %29 = load i32, ptr %lastWord, align 4
  %sub21 = sub nsw i32 %28, %29
  %call22 = call noundef i64 @_ZN8facebook5velox4bits7lowMaskEi(i32 noundef %sub21)
  call void @_ZZN8facebook5velox4bits8fillBitsEPmiibENKUlimE_clEim(ptr noundef nonnull align 8 dereferenceable(9) %partialWordFunc, i32 noundef %div20, i64 noundef %call22)
  br label %if.end23

if.end23:                                         ; preds = %if.then19, %for.end, %if.then3, %if.then
  ret void
}

; Function Attrs: mustprogress nounwind uwtable
define linkonce_odr noundef ptr @_ZNKSt6vectorImSaImEE11_M_data_ptrImEEPT_S4_(ptr noundef nonnull align 8 dereferenceable(24) %this, ptr noundef %__ptr) #2 comdat align 2 {
entry:
  %this.addr = alloca ptr, align 8
  %__ptr.addr = alloca ptr, align 8
  store ptr %this, ptr %this.addr, align 8
  store ptr %__ptr, ptr %__ptr.addr, align 8
  %0 = load ptr, ptr %__ptr.addr, align 8
  ret ptr %0
}

; Function Attrs: mustprogress nounwind uwtable
define linkonce_odr void @_ZNSt8optionalIbE5resetEv(ptr noundef nonnull align 1 dereferenceable(2) %this) #2 comdat align 2 {
entry:
  %this.addr = alloca ptr, align 8
  store ptr %this, ptr %this.addr, align 8
  %this1 = load ptr, ptr %this.addr, align 8
  call void @_ZNSt19_Optional_base_implIbSt14_Optional_baseIbLb1ELb1EEE8_M_resetEv(ptr noundef nonnull align 1 dereferenceable(1) %this1) #16
  ret void
}

; Function Attrs: mustprogress uwtable
define linkonce_odr void @_ZN8facebook5velox4bits8fillBitsEPmiib(ptr noundef %bits, i32 noundef %begin, i32 noundef %end, i1 noundef zeroext %value) #0 comdat {
entry:
  %bits.addr = alloca ptr, align 8
  %begin.addr = alloca i32, align 4
  %end.addr = alloca i32, align 4
  %value.addr = alloca i8, align 1
  %agg.tmp = alloca %class.anon.195, align 8
  %agg.tmp2 = alloca %class.anon.196, align 8
  store ptr %bits, ptr %bits.addr, align 8
  store i32 %begin, ptr %begin.addr, align 4
  store i32 %end, ptr %end.addr, align 4
  %frombool = zext i1 %value to i8
  store i8 %frombool, ptr %value.addr, align 1
  %0 = load i32, ptr %begin.addr, align 4
  %1 = load i32, ptr %end.addr, align 4
  %2 = getelementptr inbounds %class.anon.195, ptr %agg.tmp, i32 0, i32 0
  %3 = load ptr, ptr %bits.addr, align 8
  store ptr %3, ptr %2, align 8
  %4 = getelementptr inbounds %class.anon.195, ptr %agg.tmp, i32 0, i32 1
  %5 = load i8, ptr %value.addr, align 1
  %tobool = trunc i8 %5 to i1
  %frombool1 = zext i1 %tobool to i8
  store i8 %frombool1, ptr %4, align 8
  %6 = getelementptr inbounds %class.anon.196, ptr %agg.tmp2, i32 0, i32 0
  %7 = load ptr, ptr %bits.addr, align 8
  store ptr %7, ptr %6, align 8
  %8 = getelementptr inbounds %class.anon.196, ptr %agg.tmp2, i32 0, i32 1
  %9 = load i8, ptr %value.addr, align 1
  %tobool3 = trunc i8 %9 to i1
  %frombool4 = zext i1 %tobool3 to i8
  store i8 %frombool4, ptr %8, align 8
  %10 = getelementptr inbounds { ptr, i8 }, ptr %agg.tmp, i32 0, i32 0
  %11 = load ptr, ptr %10, align 8
  %12 = getelementptr inbounds { ptr, i8 }, ptr %agg.tmp, i32 0, i32 1
  %13 = load i8, ptr %12, align 8
  %14 = getelementptr inbounds { ptr, i8 }, ptr %agg.tmp2, i32 0, i32 0
  %15 = load ptr, ptr %14, align 8
  %16 = getelementptr inbounds { ptr, i8 }, ptr %agg.tmp2, i32 0, i32 1
  %17 = load i8, ptr %16, align 8
  call void @_ZN8facebook5velox4bits11forEachWordIZNS1_8fillBitsEPmiibEUlimE_ZNS1_8fillBitsES3_iibEUliE_EEviiT_T0_(i32 noundef %0, i32 noundef %1, ptr %11, i8 %13, ptr %15, i8 %17)
  ret void
}

; Function Attrs: mustprogress nounwind uwtable
define linkonce_odr noundef ptr @_ZNSt6vectorImSaImEE4dataEv(ptr noundef nonnull align 8 dereferenceable(24) %this) #2 comdat align 2 {
entry:
  %this.addr = alloca ptr, align 8
  store ptr %this, ptr %this.addr, align 8
  %this1 = load ptr, ptr %this.addr, align 8
  %_M_impl = getelementptr inbounds %"struct.std::_Vector_base.48", ptr %this1, i32 0, i32 0
  %_M_start = getelementptr inbounds %"struct.std::_Vector_base<unsigned long, std::allocator<unsigned long>>::_Vector_impl_data", ptr %_M_impl, i32 0, i32 0
  %0 = load ptr, ptr %_M_start, align 8
  %call = call noundef ptr @_ZNKSt6vectorImSaImEE11_M_data_ptrImEEPT_S4_(ptr noundef nonnull align 8 dereferenceable(24) %this1, ptr noundef %0) #16
  ret ptr %call
}

; Function Attrs: mustprogress uwtable
define linkonce_odr void @_ZN8facebook5velox17SelectivityVector13setValidRangeEiib(ptr noundef nonnull align 8 dereferenceable(38) %this, i32 noundef %begin, i32 noundef %end, i1 noundef zeroext %valid) #0 comdat align 2 {
entry:
  %this.addr = alloca ptr, align 8
  %begin.addr = alloca i32, align 4
  %end.addr = alloca i32, align 4
  %valid.addr = alloca i8, align 1
  store ptr %this, ptr %this.addr, align 8
  store i32 %begin, ptr %begin.addr, align 4
  store i32 %end, ptr %end.addr, align 4
  %frombool = zext i1 %valid to i8
  store i8 %frombool, ptr %valid.addr, align 1
  %this1 = load ptr, ptr %this.addr, align 8
  %0 = load i32, ptr %begin.addr, align 4
  %1 = load i32, ptr %end.addr, align 4
  %cmp = icmp eq i32 %0, %1
  br i1 %cmp, label %if.then, label %if.end

if.then:                                          ; preds = %entry
  br label %return

if.end:                                           ; preds = %entry
  %bits_ = getelementptr inbounds %"class.facebook::velox::SelectivityVector", ptr %this1, i32 0, i32 0
  %call = call noundef ptr @_ZNSt6vectorImSaImEE4dataEv(ptr noundef nonnull align 8 dereferenceable(24) %bits_) #16
  %2 = load i32, ptr %begin.addr, align 4
  %3 = load i32, ptr %end.addr, align 4
  %4 = load i8, ptr %valid.addr, align 1
  %tobool = trunc i8 %4 to i1
  call void @_ZN8facebook5velox4bits8fillBitsEPmiib(ptr noundef %call, i32 noundef %2, i32 noundef %3, i1 noundef zeroext %tobool)
  %allSelected_ = getelementptr inbounds %"class.facebook::velox::SelectivityVector", ptr %this1, i32 0, i32 4
  call void @_ZNSt8optionalIbE5resetEv(ptr noundef nonnull align 1 dereferenceable(2) %allSelected_) #16
  br label %return

return:                                           ; preds = %if.end, %if.then
  ret void
}

; Function Attrs: mustprogress uwtable
define internal void @_ZZNK8facebook5velox9functions12_GLOBAL__N_115ZipWithFunction5applyERKNS0_17SelectivityVectorERSt6vectorISt10shared_ptrINS0_10BaseVectorEESaISA_EERKS8_IKNS0_4TypeEERNS0_4exec7EvalCtxERSA_ENKUlT_E_clIiEEDaSN_(ptr noundef nonnull align 8 dereferenceable(24) %this, i32 noundef %row) #0 align 2 {
entry:
  %this.addr = alloca ptr, align 8
  %row.addr = alloca i32, align 4
  store ptr %this, ptr %this.addr, align 8
  store i32 %row, ptr %row.addr, align 4
  %this1 = load ptr, ptr %this.addr, align 8
  %0 = getelementptr inbounds %class.anon, ptr %this1, i32 0, i32 0
  %1 = load ptr, ptr %0, align 8
  %2 = getelementptr inbounds %class.anon, ptr %this1, i32 0, i32 1
  %3 = load ptr, ptr %2, align 8
  %4 = load ptr, ptr %3, align 8
  %5 = load i32, ptr %row.addr, align 4
  %idxprom = sext i32 %5 to i64
  %arrayidx = getelementptr inbounds i32, ptr %4, i64 %idxprom
  %6 = load i32, ptr %arrayidx, align 4
  %7 = getelementptr inbounds %class.anon, ptr %this1, i32 0, i32 1
  %8 = load ptr, ptr %7, align 8
  %9 = load ptr, ptr %8, align 8
  %10 = load i32, ptr %row.addr, align 4
  %idxprom2 = sext i32 %10 to i64
  %arrayidx3 = getelementptr inbounds i32, ptr %9, i64 %idxprom2
  %11 = load i32, ptr %arrayidx3, align 4
  %12 = getelementptr inbounds %class.anon, ptr %this1, i32 0, i32 2
  %13 = load ptr, ptr %12, align 8
  %14 = load ptr, ptr %13, align 8
  %15 = load i32, ptr %row.addr, align 4
  %idxprom4 = sext i32 %15 to i64
  %arrayidx5 = getelementptr inbounds i32, ptr %14, i64 %idxprom4
  %16 = load i32, ptr %arrayidx5, align 4
  %add = add nsw i32 %11, %16
  call void @_ZN8facebook5velox17SelectivityVector13setValidRangeEiib(ptr noundef nonnull align 8 dereferenceable(38) %1, i32 noundef %6, i32 noundef %add, i1 noundef zeroext true)
  ret void
}