; Function Attrs: mustprogress nofree norecurse nosync nounwind memory(readwrite, inaccessiblemem: none) uwtable
define internal fastcc void @_ZZNK8facebook5velox9functions12_GLOBAL__N_115ZipWithFunction5applyERKNS0_17SelectivityVectorERSt6vectorISt10shared_ptrINS0_10BaseVectorEESaISA_EERKS8_IKNS0_4TypeEERNS0_4exec7EvalCtxERSA_ENKUlT_E_clIiEEDaSN_(ptr nocapture noundef nonnull readonly align 8 dereferenceable(24) %this, i32 noundef %row) unnamed_addr #16 align 2 {
entry:
  %0 = load ptr, ptr %this, align 8
  %1 = getelementptr inbounds i8, ptr %this, i64 8
  %2 = load ptr, ptr %1, align 8
  %3 = load ptr, ptr %2, align 8
  %idxprom = sext i32 %row to i64
  %arrayidx = getelementptr inbounds i32, ptr %3, i64 %idxprom
  %4 = load i32, ptr %arrayidx, align 4
  %5 = getelementptr inbounds i8, ptr %this, i64 16
  %6 = load ptr, ptr %5, align 8
  %7 = load ptr, ptr %6, align 8
  %arrayidx5 = getelementptr inbounds i32, ptr %7, i64 %idxprom
  %8 = load i32, ptr %arrayidx5, align 4
  %add = add nsw i32 %8, %4
  %cmp.i = icmp eq i32 %8, 0
  br i1 %cmp.i, label %_ZN8facebook5velox17SelectivityVector13setValidRangeEiib.exit, label %if.end.i

if.end.i:                                         ; preds = %entry
  %9 = load ptr, ptr %0, align 8
  %cmp.not.i = icmp sgt i32 %8, 0
  br i1 %cmp.not.i, label %if.end.i3, label %_ZN8facebook5velox4bits11forEachWordIZNS1_8fillBitsEPmiibEUlimE_ZNS1_8fillBitsES3_iibEUliE_EEviiT_T0_.exit

if.end.i3:                                        ; preds = %if.end.i
  %add.i.i = add i32 %4, 63
  %10 = srem i32 %add.i.i, 64
  %mul.i.i = sub nsw i32 %add.i.i, %10
  %11 = and i32 %add, -64
  %cmp2.i = icmp slt i32 %11, %mul.i.i
  br i1 %cmp2.i, label %if.then3.i, label %if.end8.i

if.then3.i:                                       ; preds = %if.end.i3
  %sub.i = and i32 %add, 63
  %sh_prom.i.i = zext nneg i32 %sub.i to i64
  %notmask.i.i = shl nsw i64 -1, %sh_prom.i.i
  %sub.i22.i = xor i64 %notmask.i.i, -1
  %sub5.i = sub nsw i32 %mul.i.i, %4
  %sh_prom.i.i.i = zext nneg i32 %sub5.i to i64
  %notmask.i.i.i = shl nsw i64 -1, %sh_prom.i.i.i
  %sub.i.i.i = xor i64 %notmask.i.i.i, -1
  %sub.i23.i = sub nsw i32 64, %sub5.i
  %sh_prom.i24.i = zext nneg i32 %sub.i23.i to i64
  %shl.i.i = shl i64 %sub.i.i.i, %sh_prom.i24.i
  %and7.i = and i64 %shl.i.i, %sub.i22.i
  br label %_ZN8facebook5velox4bits11forEachWordIZNS1_8fillBitsEPmiibEUlimE_ZNS1_8fillBitsES3_iibEUliE_EEviiT_T0_.exit.sink.split

if.end8.i:                                        ; preds = %if.end.i3
  %cmp9.not.i = icmp eq i32 %mul.i.i, %4
  br i1 %cmp9.not.i, label %if.end14.i, label %if.then10.i

if.then10.i:                                      ; preds = %if.end8.i
  %div11.i = sdiv i32 %4, 64
  %sub12.i = sub nsw i32 %mul.i.i, %4
  %sh_prom.i.i25.i = zext nneg i32 %sub12.i to i64
  %notmask.i.i26.i = shl nsw i64 -1, %sh_prom.i.i25.i
  %sub.i.i27.i = xor i64 %notmask.i.i26.i, -1
  %sub.i28.i = sub nsw i32 64, %sub12.i
  %sh_prom.i29.i = zext nneg i32 %sub.i28.i to i64
  %shl.i30.i = shl i64 %sub.i.i27.i, %sh_prom.i29.i
  %idxprom.i33.i = sext i32 %div11.i to i64
  %arrayidx.i34.i = getelementptr inbounds i64, ptr %9, i64 %idxprom.i33.i
  %12 = load i64, ptr %arrayidx.i34.i, align 8
  %or.i35.i = or i64 %12, %shl.i30.i
  store i64 %or.i35.i, ptr %arrayidx.i34.i, align 8
  br label %if.end14.i

if.end14.i:                                       ; preds = %if.then10.i, %if.end8.i
  %add64.i = add nsw i32 %mul.i.i, 64
  %cmp15.not65.i = icmp sgt i32 %add64.i, %11
  br i1 %cmp15.not65.i, label %for.end.i, label %for.body.i

for.body.i:                                       ; preds = %if.end14.i, %for.body.i
  %add67.i = phi i32 [ %add.i, %for.body.i ], [ %add64.i, %if.end14.i ]
  %i.066.i = phi i32 [ %add67.i, %for.body.i ], [ %mul.i.i, %if.end14.i ]
  %div16.i = sdiv i32 %i.066.i, 64
  %idxprom.i42.i = sext i32 %div16.i to i64
  %arrayidx.i43.i = getelementptr inbounds i64, ptr %9, i64 %idxprom.i42.i
  store i64 -1, ptr %arrayidx.i43.i, align 8
  %add.i = add nsw i32 %add67.i, 64
  %cmp15.not.i = icmp sgt i32 %add.i, %11
  br i1 %cmp15.not.i, label %for.end.i, label %for.body.i, !llvm.loop !68

for.end.i:                                        ; preds = %for.body.i, %if.end14.i
  %cmp18.not.i = icmp eq i32 %11, %add
  br i1 %cmp18.not.i, label %_ZN8facebook5velox4bits11forEachWordIZNS1_8fillBitsEPmiibEUlimE_ZNS1_8fillBitsES3_iibEUliE_EEviiT_T0_.exit, label %if.then19.i

if.then19.i:                                      ; preds = %for.end.i
  %sub21.i = and i32 %add, 63
  %sh_prom.i44.i = zext nneg i32 %sub21.i to i64
  %notmask.i45.i = shl nsw i64 -1, %sh_prom.i44.i
  %sub.i46.i = xor i64 %notmask.i45.i, -1
  br label %_ZN8facebook5velox4bits11forEachWordIZNS1_8fillBitsEPmiibEUlimE_ZNS1_8fillBitsES3_iibEUliE_EEviiT_T0_.exit.sink.split

_ZN8facebook5velox4bits11forEachWordIZNS1_8fillBitsEPmiibEUlimE_ZNS1_8fillBitsES3_iibEUliE_EEviiT_T0_.exit.sink.split: ; preds = %if.then19.i, %if.then3.i
  %and7.i.sink = phi i64 [ %and7.i, %if.then3.i ], [ %sub.i46.i, %if.then19.i ]
  %div20.i.sink = ashr i32 %add, 6
  %idxprom.i49.i = sext i32 %div20.i.sink to i64
  %arrayidx.i50.i = getelementptr inbounds i64, ptr %9, i64 %idxprom.i49.i
  %13 = load i64, ptr %arrayidx.i50.i, align 8
  %or.i.i = or i64 %13, %and7.i.sink
  store i64 %or.i.i, ptr %arrayidx.i50.i, align 8
  br label %_ZN8facebook5velox4bits11forEachWordIZNS1_8fillBitsEPmiibEUlimE_ZNS1_8fillBitsES3_iibEUliE_EEviiT_T0_.exit

_ZN8facebook5velox4bits11forEachWordIZNS1_8fillBitsEPmiibEUlimE_ZNS1_8fillBitsES3_iibEUliE_EEviiT_T0_.exit: ; preds = %_ZN8facebook5velox4bits11forEachWordIZNS1_8fillBitsEPmiibEUlimE_ZNS1_8fillBitsES3_iibEUliE_EEviiT_T0_.exit.sink.split, %if.end.i, %for.end.i
  %_M_engaged.i.i.i.i = getelementptr inbounds i8, ptr %0, i64 37
  %14 = load i8, ptr %_M_engaged.i.i.i.i, align 1
  %15 = and i8 %14, 1
  %tobool.not.i.i.i.i = icmp eq i8 %15, 0
  br i1 %tobool.not.i.i.i.i, label %_ZN8facebook5velox17SelectivityVector13setValidRangeEiib.exit, label %if.then.i.i.i.i

if.then.i.i.i.i:                                  ; preds = %_ZN8facebook5velox4bits11forEachWordIZNS1_8fillBitsEPmiibEUlimE_ZNS1_8fillBitsES3_iibEUliE_EEviiT_T0_.exit
  store i8 0, ptr %_M_engaged.i.i.i.i, align 1
  br label %_ZN8facebook5velox17SelectivityVector13setValidRangeEiib.exit

_ZN8facebook5velox17SelectivityVector13setValidRangeEiib.exit: ; preds = %entry, %_ZN8facebook5velox4bits11forEachWordIZNS1_8fillBitsEPmiibEUlimE_ZNS1_8fillBitsES3_iibEUliE_EEviiT_T0_.exit, %if.then.i.i.i.i
  ret void
}